target datalayout = "e-m:e-p270:32:32-p271:32:32-p272:64:64-i64:64-i128:128-f80:128-n8:16:32:64-S128"
target triple = "x86_64-pc-linux-gnu"

%struct.lua_State = type { ptr, i8, i8, i8, i8, i16, %union.StkIdRel, ptr, ptr, %union.StkIdRel, %union.StkIdRel, ptr, %union.StkIdRel, ptr, ptr, ptr, %struct.CallInfo, ptr, i64, i32, i32, i32, i32, i32, %struct.anon.2 }
%union.StkIdRel = type { ptr }
%struct.CallInfo = type { %union.StkIdRel, %union.StkIdRel, ptr, ptr, %union.anon, %union.anon.1, i32 }
%union.anon = type { %struct.anon.0 }
%struct.anon.0 = type { ptr, i64, i64 }
%union.anon.1 = type { i32 }
%struct.anon.2 = type { i32, i32 }
%struct.global_State = type { ptr, ptr, i64, i64, i64, i64, %struct.stringtable, %struct.TValue, %struct.TValue, i32, [6 x i8], i8, i8, i8, i8, i8, i8, ptr, ptr, ptr, ptr, ptr, ptr, ptr, ptr, ptr, ptr, ptr, ptr, ptr, ptr, ptr, ptr, ptr, ptr, ptr, ptr, ptr, [25 x ptr], [9 x ptr], [53 x [2 x ptr]], ptr, ptr }
%struct.stringtable = type { ptr, i32, i32 }
%struct.TValue = type { %union.Value, i8 }
%union.Value = type { ptr }
%struct.GCObject = type { ptr, i8, i8 }
%struct.UpVal = type { ptr, i8, i8, %union.anon.4, %union.anon.5 }
%union.anon.4 = type { ptr }
%union.anon.5 = type { %struct.anon.6 }
%struct.anon.6 = type { ptr, ptr }

; Function Attrs: nounwind uwtable
define internal void @linkgclist_(ptr noundef %0, ptr noundef %1, ptr noundef %2) #0 {
  %4 = alloca ptr, align 8
  %5 = alloca ptr, align 8
  %6 = alloca ptr, align 8
  store ptr %0, ptr %4, align 8, !tbaa !9
  store ptr %1, ptr %5, align 8, !tbaa !52
  store ptr %2, ptr %6, align 8, !tbaa !52
  %7 = load ptr, ptr %6, align 8, !tbaa !52
  %8 = load ptr, ptr %7, align 8, !tbaa !9
  %9 = load ptr, ptr %5, align 8, !tbaa !52
  store ptr %8, ptr %9, align 8, !tbaa !9
  %10 = load ptr, ptr %4, align 8, !tbaa !9
  %11 = load ptr, ptr %6, align 8, !tbaa !52
  store ptr %10, ptr %11, align 8, !tbaa !9
  %12 = load ptr, ptr %4, align 8, !tbaa !9
  %13 = getelementptr inbounds nuw %struct.GCObject, ptr %12, i32 0, i32 2
  %14 = load i8, ptr %13, align 1, !tbaa !30
  %15 = zext i8 %14 to i32
  %16 = and i32 %15, 199
  %17 = trunc i32 %16 to i8
  store i8 %17, ptr %13, align 1, !tbaa !30
  ret void
}

; Function Attrs: nounwind uwtable
define internal void @sweep2old(ptr noundef %0, ptr noundef %1) #0 {
  %3 = alloca ptr, align 8
  %4 = alloca ptr, align 8
  %5 = alloca ptr, align 8
  %6 = alloca ptr, align 8
  %7 = alloca ptr, align 8
  store ptr %0, ptr %3, align 8, !tbaa !4
  store ptr %1, ptr %4, align 8, !tbaa !52
  call void @llvm.lifetime.start.p0(i64 8, ptr %5) #6
  call void @llvm.lifetime.start.p0(i64 8, ptr %6) #6
  %8 = load ptr, ptr %3, align 8, !tbaa !4
  %9 = getelementptr inbounds nuw %struct.lua_State, ptr %8, i32 0, i32 7
  %10 = load ptr, ptr %9, align 8, !tbaa !11
  store ptr %10, ptr %6, align 8, !tbaa !22
  br label %11

11:                                               ; preds = %82, %2
  %12 = load ptr, ptr %4, align 8, !tbaa !52
  %13 = load ptr, ptr %12, align 8, !tbaa !9
  store ptr %13, ptr %5, align 8, !tbaa !9
  %14 = icmp ne ptr %13, null
  br i1 %14, label %15, label %83

15:                                               ; preds = %11
  %16 = load ptr, ptr %5, align 8, !tbaa !9
  %17 = getelementptr inbounds nuw %struct.GCObject, ptr %16, i32 0, i32 2
  %18 = load i8, ptr %17, align 1, !tbaa !30
  %19 = zext i8 %18 to i32
  %20 = and i32 %19, 24
  %21 = icmp ne i32 %20, 0
  br i1 %21, label %22, label %29

22:                                               ; preds = %15
  %23 = load ptr, ptr %5, align 8, !tbaa !9
  %24 = getelementptr inbounds nuw %struct.GCObject, ptr %23, i32 0, i32 0
  %25 = load ptr, ptr %24, align 8, !tbaa !53
  %26 = load ptr, ptr %4, align 8, !tbaa !52
  store ptr %25, ptr %26, align 8, !tbaa !9
  %27 = load ptr, ptr %3, align 8, !tbaa !4
  %28 = load ptr, ptr %5, align 8, !tbaa !9
  call void @freeobj(ptr noundef %27, ptr noundef %28)
  br label %82

29:                                               ; preds = %15
  %30 = load ptr, ptr %5, align 8, !tbaa !9
  %31 = getelementptr inbounds nuw %struct.GCObject, ptr %30, i32 0, i32 2
  %32 = load i8, ptr %31, align 1, !tbaa !30
  %33 = zext i8 %32 to i32
  %34 = and i32 %33, -8
  %35 = or i32 %34, 4
  %36 = trunc i32 %35 to i8
  %37 = load ptr, ptr %5, align 8, !tbaa !9
  %38 = getelementptr inbounds nuw %struct.GCObject, ptr %37, i32 0, i32 2
  store i8 %36, ptr %38, align 1, !tbaa !30
  %39 = load ptr, ptr %5, align 8, !tbaa !9
  %40 = getelementptr inbounds nuw %struct.GCObject, ptr %39, i32 0, i32 1
  %41 = load i8, ptr %40, align 8, !tbaa !35
  %42 = zext i8 %41 to i32
  %43 = icmp eq i32 %42, 8
  br i1 %43, label %44, label %51

44:                                               ; preds = %29
  call void @llvm.lifetime.start.p0(i64 8, ptr %7) #6
  %45 = load ptr, ptr %5, align 8, !tbaa !9
  store ptr %45, ptr %7, align 8, !tbaa !4
  %46 = load ptr, ptr %7, align 8, !tbaa !4
  %47 = load ptr, ptr %7, align 8, !tbaa !4
  %48 = getelementptr inbounds nuw %struct.lua_State, ptr %47, i32 0, i32 13
  %49 = load ptr, ptr %6, align 8, !tbaa !22
  %50 = getelementptr inbounds nuw %struct.global_State, ptr %49, i32 0, i32 21
  call void @linkgclist_(ptr noundef %46, ptr noundef %48, ptr noundef %50)
  call void @llvm.lifetime.end.p0(i64 8, ptr %7) #6
  br label %79

51:                                               ; preds = %29
  %52 = load ptr, ptr %5, align 8, !tbaa !9
  %53 = getelementptr inbounds nuw %struct.GCObject, ptr %52, i32 0, i32 1
  %54 = load i8, ptr %53, align 8, !tbaa !35
  %55 = zext i8 %54 to i32
  %56 = icmp eq i32 %55, 9
  br i1 %56, label %57, label %71

57:                                               ; preds = %51
  %58 = load ptr, ptr %5, align 8, !tbaa !9
  %59 = getelementptr inbounds nuw %struct.UpVal, ptr %58, i32 0, i32 3
  %60 = load ptr, ptr %59, align 8, !tbaa !37
  %61 = load ptr, ptr %5, align 8, !tbaa !9
  %62 = getelementptr inbounds nuw %struct.UpVal, ptr %61, i32 0, i32 4
  %63 = icmp ne ptr %60, %62
  br i1 %63, label %64, label %71

64:                                               ; preds = %57
  %65 = load ptr, ptr %5, align 8, !tbaa !9
  %66 = getelementptr inbounds nuw %struct.GCObject, ptr %65, i32 0, i32 2
  %67 = load i8, ptr %66, align 1, !tbaa !30
  %68 = zext i8 %67 to i32
  %69 = and i32 %68, 199
  %70 = trunc i32 %69 to i8
  store i8 %70, ptr %66, align 1, !tbaa !30
  br label %78

71:                                               ; preds = %57, %51
  %72 = load ptr, ptr %5, align 8, !tbaa !9
  %73 = getelementptr inbounds nuw %struct.GCObject, ptr %72, i32 0, i32 2
  %74 = load i8, ptr %73, align 1, !tbaa !30
  %75 = zext i8 %74 to i32
  %76 = or i32 %75, 32
  %77 = trunc i32 %76 to i8
  store i8 %77, ptr %73, align 1, !tbaa !30
  br label %78

78:                                               ; preds = %71, %64
  br label %79

79:                                               ; preds = %78, %44
  %80 = load ptr, ptr %5, align 8, !tbaa !9
  %81 = getelementptr inbounds nuw %struct.GCObject, ptr %80, i32 0, i32 0
  store ptr %81, ptr %4, align 8, !tbaa !52
  br label %82

82:                                               ; preds = %79, %22
  br label %11

83:                                               ; preds = %11
  call void @llvm.lifetime.end.p0(i64 8, ptr %6) #6
  call void @llvm.lifetime.end.p0(i64 8, ptr %5) #6
  ret void
}

; Function Attrs: nounwind uwtable
define internal void @cleargraylists(ptr noundef %0) #0 {
  %2 = alloca ptr, align 8
  store ptr %0, ptr %2, align 8, !tbaa !22
  %3 = load ptr, ptr %2, align 8, !tbaa !22
  %4 = getelementptr inbounds nuw %struct.global_State, ptr %3, i32 0, i32 21
  store ptr null, ptr %4, align 8, !tbaa !94
  %5 = load ptr, ptr %2, align 8, !tbaa !22
  %6 = getelementptr inbounds nuw %struct.global_State, ptr %5, i32 0, i32 20
  store ptr null, ptr %6, align 8, !tbaa !76
  %7 = load ptr, ptr %2, align 8, !tbaa !22
  %8 = getelementptr inbounds nuw %struct.global_State, ptr %7, i32 0, i32 23
  store ptr null, ptr %8, align 8, !tbaa !99
  %9 = load ptr, ptr %2, align 8, !tbaa !22
  %10 = getelementptr inbounds nuw %struct.global_State, ptr %9, i32 0, i32 24
  store ptr null, ptr %10, align 8, !tbaa !98
  %11 = load ptr, ptr %2, align 8, !tbaa !22
  %12 = getelementptr inbounds nuw %struct.global_State, ptr %11, i32 0, i32 22
  store ptr null, ptr %12, align 8, !tbaa !97
  ret void
}

; Function Attrs: nounwind uwtable
define internal void @atomic2gen(ptr noundef %0, ptr noundef %1) #0 {
  %3 = alloca ptr, align 8
  %4 = alloca ptr, align 8
  store ptr %0, ptr %3, align 8, !tbaa !4
  store ptr %1, ptr %4, align 8, !tbaa !22
  %5 = load ptr, ptr %4, align 8, !tbaa !22
  call void @cleargraylists(ptr noundef %5)
  %6 = load ptr, ptr %4, align 8, !tbaa !22
  %7 = getelementptr inbounds nuw %struct.global_State, ptr %6, i32 0, i32 12
  store i8 3, ptr %7, align 1, !tbaa !23
  %8 = load ptr, ptr %3, align 8, !tbaa !4
  %9 = load ptr, ptr %4, align 8, !tbaa !22
  %10 = getelementptr inbounds nuw %struct.global_State, ptr %9, i32 0, i32 17
  call void @sweep2old(ptr noundef %8, ptr noundef %10)
  %11 = load ptr, ptr %4, align 8, !tbaa !22
  %12 = getelementptr inbounds nuw %struct.global_State, ptr %11, i32 0, i32 17
  %13 = load ptr, ptr %12, align 8, !tbaa !54
  %14 = load ptr, ptr %4, align 8, !tbaa !22
  %15 = getelementptr inbounds nuw %struct.global_State, ptr %14, i32 0, i32 27
  store ptr %13, ptr %15, align 8, !tbaa !67
  %16 = load ptr, ptr %4, align 8, !tbaa !22
  %17 = getelementptr inbounds nuw %struct.global_State, ptr %16, i32 0, i32 28
  store ptr %13, ptr %17, align 8, !tbaa !68
  %18 = load ptr, ptr %4, align 8, !tbaa !22
  %19 = getelementptr inbounds nuw %struct.global_State, ptr %18, i32 0, i32 29
  store ptr %13, ptr %19, align 8, !tbaa !69
  %20 = load ptr, ptr %4, align 8, !tbaa !22
  %21 = getelementptr inbounds nuw %struct.global_State, ptr %20, i32 0, i32 30
  store ptr null, ptr %21, align 8, !tbaa !78
  %22 = load ptr, ptr %3, align 8, !tbaa !4
  %23 = load ptr, ptr %4, align 8, !tbaa !22
  %24 = getelementptr inbounds nuw %struct.global_State, ptr %23, i32 0, i32 19
  call void @sweep2old(ptr noundef %22, ptr noundef %24)
  %25 = load ptr, ptr %4, align 8, !tbaa !22
  %26 = getelementptr inbounds nuw %struct.global_State, ptr %25, i32 0, i32 19
  %27 = load ptr, ptr %26, align 8, !tbaa !64
  %28 = load ptr, ptr %4, align 8, !tbaa !22
  %29 = getelementptr inbounds nuw %struct.global_State, ptr %28, i32 0, i32 31
  store ptr %27, ptr %29, align 8, !tbaa !70
  %30 = load ptr, ptr %4, align 8, !tbaa !22
  %31 = getelementptr inbounds nuw %struct.global_State, ptr %30, i32 0, i32 32
  store ptr %27, ptr %31, align 8, !tbaa !71
  %32 = load ptr, ptr %4, align 8, !tbaa !22
  %33 = getelementptr inbounds nuw %struct.global_State, ptr %32, i32 0, i32 33
  store ptr %27, ptr %33, align 8, !tbaa !72
  %34 = load ptr, ptr %3, align 8, !tbaa !4
  %35 = load ptr, ptr %4, align 8, !tbaa !22
  %36 = getelementptr inbounds nuw %struct.global_State, ptr %35, i32 0, i32 25
  call void @sweep2old(ptr noundef %34, ptr noundef %36)
  %37 = load ptr, ptr %4, align 8, !tbaa !22
  %38 = getelementptr inbounds nuw %struct.global_State, ptr %37, i32 0, i32 13
  store i8 1, ptr %38, align 4, !tbaa !32
  %39 = load ptr, ptr %4, align 8, !tbaa !22
  %40 = getelementptr inbounds nuw %struct.global_State, ptr %39, i32 0, i32 4
  %41 = load i64, ptr %40, align 8, !tbaa !34
  %42 = load ptr, ptr %4, align 8, !tbaa !22
  %43 = getelementptr inbounds nuw %struct.global_State, ptr %42, i32 0, i32 5
  store i64 %41, ptr %43, align 8, !tbaa !66
  %44 = load ptr, ptr %4, align 8, !tbaa !22
  %45 = getelementptr inbounds nuw %struct.global_State, ptr %44, i32 0, i32 4
  store i64 0, ptr %45, align 8, !tbaa !34
  %46 = load ptr, ptr %3, align 8, !tbaa !4
  %47 = load ptr, ptr %4, align 8, !tbaa !22
  call void @finishgencycle(ptr noundef %46, ptr noundef %47)
  ret void
}