; Function Attrs: nounwind uwtable
define internal fastcc void @atomic2gen(ptr noundef %0, ptr noundef captures(none) initializes((107, 108), (136, 176)) %1) unnamed_addr #0 {
  %3 = getelementptr inbounds nuw i8, ptr %1, i64 136
  tail call void @llvm.memset.p0.i64(ptr noundef nonnull align 8 dereferenceable(40) %3, i8 0, i64 40, i1 false)
  %4 = getelementptr inbounds nuw i8, ptr %1, i64 107
  store i8 3, ptr %4, align 1, !tbaa !20
  %5 = getelementptr inbounds nuw i8, ptr %1, i64 112
  %6 = load ptr, ptr %5, align 8, !tbaa !46
  %.not24.i = icmp eq ptr %6, null
  br i1 %.not24.i, label %sweep2old.exit, label %.lr.ph.i

.lr.ph.i:                                         ; preds = %2
  %7 = getelementptr inbounds nuw i8, ptr %0, i64 24
  %8 = load ptr, ptr %7, align 8, !tbaa !4
  %9 = getelementptr inbounds nuw i8, ptr %8, i64 144
  br label %10

10:                                               ; preds = %34, %.lr.ph.i
  %11 = phi ptr [ %6, %.lr.ph.i ], [ %35, %34 ]
  %.025.i = phi ptr [ %5, %.lr.ph.i ], [ %.1.i, %34 ]
  %12 = getelementptr inbounds nuw i8, ptr %11, i64 9
  %13 = load i8, ptr %12, align 1, !tbaa !27
  %14 = and i8 %13, 24
  %.not22.i = icmp eq i8 %14, 0
  br i1 %.not22.i, label %17, label %15

15:                                               ; preds = %10
  %16 = load ptr, ptr %11, align 8, !tbaa !47
  store ptr %16, ptr %.025.i, align 8, !tbaa !46
  tail call fastcc void @freeobj(ptr noundef %0, ptr noundef nonnull %11)
  br label %34

17:                                               ; preds = %10
  %18 = and i8 %13, -32
  %19 = or disjoint i8 %18, 4
  %20 = getelementptr inbounds nuw i8, ptr %11, i64 8
  %21 = load i8, ptr %20, align 8, !tbaa !32
  switch i8 %21, label %32 [
    i8 8, label %22
    i8 9, label %26
  ]

22:                                               ; preds = %17
  %23 = getelementptr inbounds nuw i8, ptr %11, i64 72
  %24 = load ptr, ptr %9, align 8, !tbaa !46
  store ptr %24, ptr %23, align 8, !tbaa !46
  store ptr %11, ptr %9, align 8, !tbaa !46
  %25 = and i8 %19, -60
  store i8 %25, ptr %12, align 1, !tbaa !27
  br label %34

26:                                               ; preds = %17
  %27 = getelementptr inbounds nuw i8, ptr %11, i64 16
  %28 = load ptr, ptr %27, align 8, !tbaa !33
  %29 = getelementptr inbounds nuw i8, ptr %11, i64 24
  %.not23.i = icmp eq ptr %28, %29
  br i1 %.not23.i, label %32, label %30

30:                                               ; preds = %26
  %31 = and i8 %19, -60
  store i8 %31, ptr %12, align 1, !tbaa !27
  br label %34

32:                                               ; preds = %26, %17
  %33 = or i8 %18, 36
  store i8 %33, ptr %12, align 1, !tbaa !27
  br label %34

34:                                               ; preds = %32, %30, %22, %15
  %.1.i = phi ptr [ %.025.i, %15 ], [ %11, %30 ], [ %11, %32 ], [ %11, %22 ]
  %35 = load ptr, ptr %.1.i, align 8, !tbaa !46
  %.not.i = icmp eq ptr %35, null
  br i1 %.not.i, label %sweep2old.exit.loopexit, label %10

sweep2old.exit.loopexit:                          ; preds = %34
  %.pre = load ptr, ptr %5, align 8, !tbaa !48
  br label %sweep2old.exit

sweep2old.exit:                                   ; preds = %sweep2old.exit.loopexit, %2
  %36 = phi ptr [ %.pre, %sweep2old.exit.loopexit ], [ null, %2 ]
  %37 = getelementptr inbounds nuw i8, ptr %1, i64 192
  store ptr %36, ptr %37, align 8, !tbaa !73
  %38 = getelementptr inbounds nuw i8, ptr %1, i64 200
  store ptr %36, ptr %38, align 8, !tbaa !74
  %39 = getelementptr inbounds nuw i8, ptr %1, i64 208
  store ptr %36, ptr %39, align 8, !tbaa !71
  %40 = getelementptr inbounds nuw i8, ptr %1, i64 216
  store ptr null, ptr %40, align 8, !tbaa !70
  %41 = getelementptr inbounds nuw i8, ptr %1, i64 128
  %42 = load ptr, ptr %41, align 8, !tbaa !46
  %.not24.i23 = icmp eq ptr %42, null
  br i1 %.not24.i23, label %sweep2old.exit30, label %.lr.ph.i24

.lr.ph.i24:                                       ; preds = %sweep2old.exit
  %43 = getelementptr inbounds nuw i8, ptr %0, i64 24
  %44 = load ptr, ptr %43, align 8, !tbaa !4
  %45 = getelementptr inbounds nuw i8, ptr %44, i64 144
  br label %46

46:                                               ; preds = %70, %.lr.ph.i24
  %47 = phi ptr [ %42, %.lr.ph.i24 ], [ %71, %70 ]
  %.025.i25 = phi ptr [ %41, %.lr.ph.i24 ], [ %.1.i27, %70 ]
  %48 = getelementptr inbounds nuw i8, ptr %47, i64 9
  %49 = load i8, ptr %48, align 1, !tbaa !27
  %50 = and i8 %49, 24
  %.not22.i26 = icmp eq i8 %50, 0
  br i1 %.not22.i26, label %53, label %51

51:                                               ; preds = %46
  %52 = load ptr, ptr %47, align 8, !tbaa !47
  store ptr %52, ptr %.025.i25, align 8, !tbaa !46
  tail call fastcc void @freeobj(ptr noundef %0, ptr noundef nonnull %47)
  br label %70

53:                                               ; preds = %46
  %54 = and i8 %49, -32
  %55 = or disjoint i8 %54, 4
  %56 = getelementptr inbounds nuw i8, ptr %47, i64 8
  %57 = load i8, ptr %56, align 8, !tbaa !32
  switch i8 %57, label %68 [
    i8 8, label %58
    i8 9, label %62
  ]

58:                                               ; preds = %53
  %59 = getelementptr inbounds nuw i8, ptr %47, i64 72
  %60 = load ptr, ptr %45, align 8, !tbaa !46
  store ptr %60, ptr %59, align 8, !tbaa !46
  store ptr %47, ptr %45, align 8, !tbaa !46
  %61 = and i8 %55, -60
  store i8 %61, ptr %48, align 1, !tbaa !27
  br label %70

62:                                               ; preds = %53
  %63 = getelementptr inbounds nuw i8, ptr %47, i64 16
  %64 = load ptr, ptr %63, align 8, !tbaa !33
  %65 = getelementptr inbounds nuw i8, ptr %47, i64 24
  %.not23.i29 = icmp eq ptr %64, %65
  br i1 %.not23.i29, label %68, label %66

66:                                               ; preds = %62
  %67 = and i8 %55, -60
  store i8 %67, ptr %48, align 1, !tbaa !27
  br label %70

68:                                               ; preds = %62, %53
  %69 = or i8 %54, 36
  store i8 %69, ptr %48, align 1, !tbaa !27
  br label %70

70:                                               ; preds = %68, %66, %58, %51
  %.1.i27 = phi ptr [ %.025.i25, %51 ], [ %47, %66 ], [ %47, %68 ], [ %47, %58 ]
  %71 = load ptr, ptr %.1.i27, align 8, !tbaa !46
  %.not.i28 = icmp eq ptr %71, null
  br i1 %.not.i28, label %sweep2old.exit30.loopexit, label %46

sweep2old.exit30.loopexit:                        ; preds = %70
  %.pre39 = load ptr, ptr %41, align 8, !tbaa !54
  br label %sweep2old.exit30

sweep2old.exit30:                                 ; preds = %sweep2old.exit30.loopexit, %sweep2old.exit
  %72 = phi ptr [ %.pre39, %sweep2old.exit30.loopexit ], [ null, %sweep2old.exit ]
  %73 = getelementptr inbounds nuw i8, ptr %1, i64 224
  store ptr %72, ptr %73, align 8, !tbaa !57
  %74 = getelementptr inbounds nuw i8, ptr %1, i64 232
  store ptr %72, ptr %74, align 8, !tbaa !56
  %75 = getelementptr inbounds nuw i8, ptr %1, i64 240
  store ptr %72, ptr %75, align 8, !tbaa !72
  %76 = getelementptr inbounds nuw i8, ptr %1, i64 176
  %77 = load ptr, ptr %76, align 8, !tbaa !46
  %.not24.i31 = icmp eq ptr %77, null
  br i1 %.not24.i31, label %sweep2old.exit38, label %.lr.ph.i32

.lr.ph.i32:                                       ; preds = %sweep2old.exit30
  %78 = getelementptr inbounds nuw i8, ptr %0, i64 24
  %79 = load ptr, ptr %78, align 8, !tbaa !4
  %80 = getelementptr inbounds nuw i8, ptr %79, i64 144
  br label %81

81:                                               ; preds = %105, %.lr.ph.i32
  %82 = phi ptr [ %77, %.lr.ph.i32 ], [ %106, %105 ]
  %.025.i33 = phi ptr [ %76, %.lr.ph.i32 ], [ %.1.i35, %105 ]
  %83 = getelementptr inbounds nuw i8, ptr %82, i64 9
  %84 = load i8, ptr %83, align 1, !tbaa !27
  %85 = and i8 %84, 24
  %.not22.i34 = icmp eq i8 %85, 0
  br i1 %.not22.i34, label %88, label %86

86:                                               ; preds = %81
  %87 = load ptr, ptr %82, align 8, !tbaa !47
  store ptr %87, ptr %.025.i33, align 8, !tbaa !46
  tail call fastcc void @freeobj(ptr noundef %0, ptr noundef nonnull %82)
  br label %105

88:                                               ; preds = %81
  %89 = and i8 %84, -32
  %90 = or disjoint i8 %89, 4
  %91 = getelementptr inbounds nuw i8, ptr %82, i64 8
  %92 = load i8, ptr %91, align 8, !tbaa !32
  switch i8 %92, label %103 [
    i8 8, label %93
    i8 9, label %97
  ]

93:                                               ; preds = %88
  %94 = getelementptr inbounds nuw i8, ptr %82, i64 72
  %95 = load ptr, ptr %80, align 8, !tbaa !46
  store ptr %95, ptr %94, align 8, !tbaa !46
  store ptr %82, ptr %80, align 8, !tbaa !46
  %96 = and i8 %90, -60
  store i8 %96, ptr %83, align 1, !tbaa !27
  br label %105

97:                                               ; preds = %88
  %98 = getelementptr inbounds nuw i8, ptr %82, i64 16
  %99 = load ptr, ptr %98, align 8, !tbaa !33
  %100 = getelementptr inbounds nuw i8, ptr %82, i64 24
  %.not23.i37 = icmp eq ptr %99, %100
  br i1 %.not23.i37, label %103, label %101

101:                                              ; preds = %97
  %102 = and i8 %90, -60
  store i8 %102, ptr %83, align 1, !tbaa !27
  br label %105

103:                                              ; preds = %97, %88
  %104 = or i8 %89, 36
  store i8 %104, ptr %83, align 1, !tbaa !27
  br label %105

105:                                              ; preds = %103, %101, %93, %86
  %.1.i35 = phi ptr [ %.025.i33, %86 ], [ %82, %101 ], [ %82, %103 ], [ %82, %93 ]
  %106 = load ptr, ptr %.1.i35, align 8, !tbaa !46
  %.not.i36 = icmp eq ptr %106, null
  br i1 %.not.i36, label %sweep2old.exit38, label %81

sweep2old.exit38:                                 ; preds = %105, %sweep2old.exit30
  %107 = getelementptr inbounds nuw i8, ptr %1, i64 108
  store i8 1, ptr %107, align 4, !tbaa !29
  %108 = getelementptr inbounds nuw i8, ptr %1, i64 32
  %109 = load i64, ptr %108, align 8, !tbaa !31
  %110 = getelementptr inbounds nuw i8, ptr %1, i64 40
  store i64 %109, ptr %110, align 8, !tbaa !55
  store i64 0, ptr %108, align 8, !tbaa !31
  tail call fastcc void @finishgencycle(ptr noundef %0, ptr noundef %1)
  ret void
}